target datalayout = "e-m:e-p270:32:32-p271:32:32-p272:64:64-i64:64-i128:128-f80:128-n8:16:32:64-S128"
target triple = "x86_64-pc-linux-gnu"

%struct.UHashtable = type { ptr, ptr, ptr, ptr, ptr, ptr, i32, i32, i32, i32, float, float, i8, i8 }
%struct.UHashElement = type { i32, %union.UElement, %union.UElement }
%union.UElement = type { ptr }

@_ZL25RESIZE_POLICY_RATIO_TABLE = internal constant [6 x float] [float 0.000000e+00, float 5.000000e-01, float 0x3FB99999A0000000, float 5.000000e-01, float 0.000000e+00, float 1.000000e+00], align 16

; Function Attrs: mustprogress uwtable
define internal void @_ZL15_uhash_allocateP10UHashtableiP10UErrorCode(ptr noundef %0, i32 noundef %1, ptr noundef %2) #0 {
  %4 = alloca ptr, align 8
  %5 = alloca i32, align 4
  %6 = alloca ptr, align 8
  %7 = alloca ptr, align 8
  %8 = alloca ptr, align 8
  %9 = alloca %union.UElement, align 8
  %10 = alloca i32, align 4
  store ptr %0, ptr %4, align 8, !tbaa !11
  store i32 %1, ptr %5, align 4, !tbaa !7
  store ptr %2, ptr %6, align 8, !tbaa !3
  call void @llvm.lifetime.start.p0(i64 8, ptr %7) #9
  call void @llvm.lifetime.start.p0(i64 8, ptr %8) #9
  call void @llvm.lifetime.start.p0(i64 8, ptr %9) #9
  %11 = load ptr, ptr %6, align 8, !tbaa !3
  %12 = load i32, ptr %11, align 4, !tbaa !9
  %13 = call noundef signext i8 @_ZL9U_FAILURE10UErrorCode(i32 noundef %12)
  %14 = icmp ne i8 %13, 0
  br i1 %14, label %15, label %16

15:                                               ; preds = %3
  store i32 1, ptr %10, align 4
  br label %86

16:                                               ; preds = %3
  %17 = load i32, ptr %5, align 4, !tbaa !7
  %18 = trunc i32 %17 to i8
  %19 = load ptr, ptr %4, align 8, !tbaa !11
  %20 = getelementptr inbounds nuw %struct.UHashtable, ptr %19, i32 0, i32 12
  store i8 %18, ptr %20, align 8, !tbaa !42
  %21 = load i32, ptr %5, align 4, !tbaa !7
  %22 = sext i32 %21 to i64
  %23 = getelementptr inbounds [29 x i32], ptr @_ZL6PRIMES, i64 0, i64 %22
  %24 = load i32, ptr %23, align 4, !tbaa !7
  %25 = load ptr, ptr %4, align 8, !tbaa !11
  %26 = getelementptr inbounds nuw %struct.UHashtable, ptr %25, i32 0, i32 7
  store i32 %24, ptr %26, align 4, !tbaa !31
  %27 = load ptr, ptr %4, align 8, !tbaa !11
  %28 = getelementptr inbounds nuw %struct.UHashtable, ptr %27, i32 0, i32 7
  %29 = load i32, ptr %28, align 4, !tbaa !31
  %30 = sext i32 %29 to i64
  %31 = mul i64 24, %30
  %32 = call noalias ptr @uprv_malloc_77(i64 noundef %31) #10
  %33 = load ptr, ptr %4, align 8, !tbaa !11
  %34 = getelementptr inbounds nuw %struct.UHashtable, ptr %33, i32 0, i32 0
  store ptr %32, ptr %34, align 8, !tbaa !25
  store ptr %32, ptr %7, align 8, !tbaa !26
  %35 = load ptr, ptr %4, align 8, !tbaa !11
  %36 = getelementptr inbounds nuw %struct.UHashtable, ptr %35, i32 0, i32 0
  %37 = load ptr, ptr %36, align 8, !tbaa !25
  %38 = icmp eq ptr %37, null
  br i1 %38, label %39, label %41

39:                                               ; preds = %16
  %40 = load ptr, ptr %6, align 8, !tbaa !3
  store i32 7, ptr %40, align 4, !tbaa !9
  store i32 1, ptr %10, align 4
  br label %86

41:                                               ; preds = %16
  store ptr null, ptr %9, align 8, !tbaa !27
  store i32 0, ptr %9, align 8, !tbaa !27
  %42 = load ptr, ptr %7, align 8, !tbaa !26
  %43 = load ptr, ptr %4, align 8, !tbaa !11
  %44 = getelementptr inbounds nuw %struct.UHashtable, ptr %43, i32 0, i32 7
  %45 = load i32, ptr %44, align 4, !tbaa !31
  %46 = sext i32 %45 to i64
  %47 = getelementptr inbounds %struct.UHashElement, ptr %42, i64 %46
  store ptr %47, ptr %8, align 8, !tbaa !26
  br label %48

48:                                               ; preds = %52, %41
  %49 = load ptr, ptr %7, align 8, !tbaa !26
  %50 = load ptr, ptr %8, align 8, !tbaa !26
  %51 = icmp ult ptr %49, %50
  br i1 %51, label %52, label %61

52:                                               ; preds = %48
  %53 = load ptr, ptr %7, align 8, !tbaa !26
  %54 = getelementptr inbounds nuw %struct.UHashElement, ptr %53, i32 0, i32 2
  call void @llvm.memcpy.p0.p0.i64(ptr align 8 %54, ptr align 8 %9, i64 8, i1 false), !tbaa.struct !44
  %55 = load ptr, ptr %7, align 8, !tbaa !26
  %56 = getelementptr inbounds nuw %struct.UHashElement, ptr %55, i32 0, i32 1
  call void @llvm.memcpy.p0.p0.i64(ptr align 8 %56, ptr align 8 %9, i64 8, i1 false), !tbaa.struct !44
  %57 = load ptr, ptr %7, align 8, !tbaa !26
  %58 = getelementptr inbounds nuw %struct.UHashElement, ptr %57, i32 0, i32 0
  store i32 -2147483647, ptr %58, align 8, !tbaa !32
  %59 = load ptr, ptr %7, align 8, !tbaa !26
  %60 = getelementptr inbounds nuw %struct.UHashElement, ptr %59, i32 1
  store ptr %60, ptr %7, align 8, !tbaa !26
  br label %48, !llvm.loop !66

61:                                               ; preds = %48
  %62 = load ptr, ptr %4, align 8, !tbaa !11
  %63 = getelementptr inbounds nuw %struct.UHashtable, ptr %62, i32 0, i32 6
  store i32 0, ptr %63, align 8, !tbaa !43
  %64 = load ptr, ptr %4, align 8, !tbaa !11
  %65 = getelementptr inbounds nuw %struct.UHashtable, ptr %64, i32 0, i32 7
  %66 = load i32, ptr %65, align 4, !tbaa !31
  %67 = sitofp i32 %66 to float
  %68 = load ptr, ptr %4, align 8, !tbaa !11
  %69 = getelementptr inbounds nuw %struct.UHashtable, ptr %68, i32 0, i32 11
  %70 = load float, ptr %69, align 4, !tbaa !37
  %71 = fmul float %67, %70
  %72 = fptosi float %71 to i32
  %73 = load ptr, ptr %4, align 8, !tbaa !11
  %74 = getelementptr inbounds nuw %struct.UHashtable, ptr %73, i32 0, i32 9
  store i32 %72, ptr %74, align 4, !tbaa !38
  %75 = load ptr, ptr %4, align 8, !tbaa !11
  %76 = getelementptr inbounds nuw %struct.UHashtable, ptr %75, i32 0, i32 7
  %77 = load i32, ptr %76, align 4, !tbaa !31
  %78 = sitofp i32 %77 to float
  %79 = load ptr, ptr %4, align 8, !tbaa !11
  %80 = getelementptr inbounds nuw %struct.UHashtable, ptr %79, i32 0, i32 10
  %81 = load float, ptr %80, align 8, !tbaa !39
  %82 = fmul float %78, %81
  %83 = fptosi float %82 to i32
  %84 = load ptr, ptr %4, align 8, !tbaa !11
  %85 = getelementptr inbounds nuw %struct.UHashtable, ptr %84, i32 0, i32 8
  store i32 %83, ptr %85, align 8, !tbaa !40
  store i32 0, ptr %10, align 4
  br label %86

86:                                               ; preds = %61, %39, %15
  call void @llvm.lifetime.end.p0(i64 8, ptr %9) #9
  call void @llvm.lifetime.end.p0(i64 8, ptr %8) #9
  call void @llvm.lifetime.end.p0(i64 8, ptr %7) #9
  %87 = load i32, ptr %10, align 4
  switch i32 %87, label %89 [
    i32 0, label %88
    i32 1, label %88
  ]

88:                                               ; preds = %86, %86
  ret void

89:                                               ; preds = %86
  unreachable
}

; Function Attrs: mustprogress nounwind uwtable
define internal void @_ZL30_uhash_internalSetResizePolicyP10UHashtable17UHashResizePolicy(ptr noundef %0, i32 noundef %1) #2 {
  %3 = alloca ptr, align 8
  %4 = alloca i32, align 4
  store ptr %0, ptr %3, align 8, !tbaa !11
  store i32 %1, ptr %4, align 4, !tbaa !35
  %5 = load i32, ptr %4, align 4, !tbaa !35
  %6 = mul nsw i32 %5, 2
  %7 = sext i32 %6 to i64
  %8 = getelementptr inbounds [6 x float], ptr @_ZL25RESIZE_POLICY_RATIO_TABLE, i64 0, i64 %7
  %9 = load float, ptr %8, align 4, !tbaa !41
  %10 = load ptr, ptr %3, align 8, !tbaa !11
  %11 = getelementptr inbounds nuw %struct.UHashtable, ptr %10, i32 0, i32 11
  store float %9, ptr %11, align 4, !tbaa !37
  %12 = load i32, ptr %4, align 4, !tbaa !35
  %13 = mul nsw i32 %12, 2
  %14 = add nsw i32 %13, 1
  %15 = sext i32 %14 to i64
  %16 = getelementptr inbounds [6 x float], ptr @_ZL25RESIZE_POLICY_RATIO_TABLE, i64 0, i64 %15
  %17 = load float, ptr %16, align 4, !tbaa !41
  %18 = load ptr, ptr %3, align 8, !tbaa !11
  %19 = getelementptr inbounds nuw %struct.UHashtable, ptr %18, i32 0, i32 10
  store float %17, ptr %19, align 8, !tbaa !39
  ret void
}

; Function Attrs: mustprogress uwtable
define internal noundef ptr @_ZL11_uhash_initP10UHashtablePFi8UElementEPFaS1_S1_ES5_iP10UErrorCode(ptr noundef %0, ptr noundef %1, ptr noundef %2, ptr noundef %3, i32 noundef %4, ptr noundef %5) #0 {
  %7 = alloca ptr, align 8
  %8 = alloca ptr, align 8
  %9 = alloca ptr, align 8
  %10 = alloca ptr, align 8
  %11 = alloca ptr, align 8
  %12 = alloca i32, align 4
  %13 = alloca ptr, align 8
  store ptr %0, ptr %8, align 8, !tbaa !11
  store ptr %1, ptr %9, align 8, !tbaa !3
  store ptr %2, ptr %10, align 8, !tbaa !3
  store ptr %3, ptr %11, align 8, !tbaa !3
  store i32 %4, ptr %12, align 4, !tbaa !7
  store ptr %5, ptr %13, align 8, !tbaa !3
  %14 = load ptr, ptr %13, align 8, !tbaa !3
  %15 = load i32, ptr %14, align 4, !tbaa !9
  %16 = call noundef signext i8 @_ZL9U_FAILURE10UErrorCode(i32 noundef %15)
  %17 = icmp ne i8 %16, 0
  br i1 %17, label %18, label %19

18:                                               ; preds = %6
  store ptr null, ptr %7, align 8
  br label %46

19:                                               ; preds = %6
  %20 = load ptr, ptr %9, align 8, !tbaa !3
  %21 = load ptr, ptr %8, align 8, !tbaa !11
  %22 = getelementptr inbounds nuw %struct.UHashtable, ptr %21, i32 0, i32 1
  store ptr %20, ptr %22, align 8, !tbaa !19
  %23 = load ptr, ptr %10, align 8, !tbaa !3
  %24 = load ptr, ptr %8, align 8, !tbaa !11
  %25 = getelementptr inbounds nuw %struct.UHashtable, ptr %24, i32 0, i32 2
  store ptr %23, ptr %25, align 8, !tbaa !20
  %26 = load ptr, ptr %11, align 8, !tbaa !3
  %27 = load ptr, ptr %8, align 8, !tbaa !11
  %28 = getelementptr inbounds nuw %struct.UHashtable, ptr %27, i32 0, i32 3
  store ptr %26, ptr %28, align 8, !tbaa !21
  %29 = load ptr, ptr %8, align 8, !tbaa !11
  %30 = getelementptr inbounds nuw %struct.UHashtable, ptr %29, i32 0, i32 4
  store ptr null, ptr %30, align 8, !tbaa !22
  %31 = load ptr, ptr %8, align 8, !tbaa !11
  %32 = getelementptr inbounds nuw %struct.UHashtable, ptr %31, i32 0, i32 5
  store ptr null, ptr %32, align 8, !tbaa !23
  %33 = load ptr, ptr %8, align 8, !tbaa !11
  %34 = getelementptr inbounds nuw %struct.UHashtable, ptr %33, i32 0, i32 13
  store i8 0, ptr %34, align 1, !tbaa !13
  %35 = load ptr, ptr %8, align 8, !tbaa !11
  call void @_ZL30_uhash_internalSetResizePolicyP10UHashtable17UHashResizePolicy(ptr noundef %35, i32 noundef 0)
  %36 = load ptr, ptr %8, align 8, !tbaa !11
  %37 = load i32, ptr %12, align 4, !tbaa !7
  %38 = load ptr, ptr %13, align 8, !tbaa !3
  call void @_ZL15_uhash_allocateP10UHashtableiP10UErrorCode(ptr noundef %36, i32 noundef %37, ptr noundef %38)
  %39 = load ptr, ptr %13, align 8, !tbaa !3
  %40 = load i32, ptr %39, align 4, !tbaa !9
  %41 = call noundef signext i8 @_ZL9U_FAILURE10UErrorCode(i32 noundef %40)
  %42 = icmp ne i8 %41, 0
  br i1 %42, label %43, label %44

43:                                               ; preds = %19
  store ptr null, ptr %7, align 8
  br label %46

44:                                               ; preds = %19
  %45 = load ptr, ptr %8, align 8, !tbaa !11
  store ptr %45, ptr %7, align 8
  br label %46

46:                                               ; preds = %44, %43, %18
  %47 = load ptr, ptr %7, align 8
  ret ptr %47
}

; Function Attrs: inlinehint mustprogress nounwind uwtable
define internal noundef signext i8 @_ZL9U_FAILURE10UErrorCode(i32 noundef %0) #6 {
  %2 = alloca i32, align 4
  store i32 %0, ptr %2, align 4, !tbaa !9
  %3 = load i32, ptr %2, align 4, !tbaa !9
  %4 = icmp sgt i32 %3, 0
  %5 = zext i1 %4 to i8
  ret i8 %5
}

; Function Attrs: mustprogress uwtable
define internal noundef ptr @_ZL13_uhash_createPFi8UElementEPFaS_S_ES3_iP10UErrorCode(ptr noundef %0, ptr noundef %1, ptr noundef %2, i32 noundef %3, ptr noundef %4) #0 {
  %6 = alloca ptr, align 8
  %7 = alloca ptr, align 8
  %8 = alloca ptr, align 8
  %9 = alloca ptr, align 8
  %10 = alloca i32, align 4
  %11 = alloca ptr, align 8
  %12 = alloca ptr, align 8
  %13 = alloca i32, align 4
  store ptr %0, ptr %7, align 8, !tbaa !3
  store ptr %1, ptr %8, align 8, !tbaa !3
  store ptr %2, ptr %9, align 8, !tbaa !3
  store i32 %3, ptr %10, align 4, !tbaa !7
  store ptr %4, ptr %11, align 8, !tbaa !3
  call void @llvm.lifetime.start.p0(i64 8, ptr %12) #9
  %14 = load ptr, ptr %11, align 8, !tbaa !3
  %15 = load i32, ptr %14, align 4, !tbaa !9
  %16 = call noundef signext i8 @_ZL9U_FAILURE10UErrorCode(i32 noundef %15)
  %17 = icmp ne i8 %16, 0
  br i1 %17, label %18, label %19

18:                                               ; preds = %5
  store ptr null, ptr %6, align 8
  store i32 1, ptr %13, align 4
  br label %43

19:                                               ; preds = %5
  %20 = call noalias ptr @uprv_malloc_77(i64 noundef 80) #10
  store ptr %20, ptr %12, align 8, !tbaa !11
  %21 = load ptr, ptr %12, align 8, !tbaa !11
  %22 = icmp eq ptr %21, null
  br i1 %22, label %23, label %25

23:                                               ; preds = %19
  %24 = load ptr, ptr %11, align 8, !tbaa !3
  store i32 7, ptr %24, align 4, !tbaa !9
  store ptr null, ptr %6, align 8
  store i32 1, ptr %13, align 4
  br label %43

25:                                               ; preds = %19
  %26 = load ptr, ptr %12, align 8, !tbaa !11
  %27 = load ptr, ptr %7, align 8, !tbaa !3
  %28 = load ptr, ptr %8, align 8, !tbaa !3
  %29 = load ptr, ptr %9, align 8, !tbaa !3
  %30 = load i32, ptr %10, align 4, !tbaa !7
  %31 = load ptr, ptr %11, align 8, !tbaa !3
  %32 = call noundef ptr @_ZL11_uhash_initP10UHashtablePFi8UElementEPFaS1_S1_ES5_iP10UErrorCode(ptr noundef %26, ptr noundef %27, ptr noundef %28, ptr noundef %29, i32 noundef %30, ptr noundef %31)
  %33 = load ptr, ptr %12, align 8, !tbaa !11
  %34 = getelementptr inbounds nuw %struct.UHashtable, ptr %33, i32 0, i32 13
  store i8 1, ptr %34, align 1, !tbaa !13
  %35 = load ptr, ptr %11, align 8, !tbaa !3
  %36 = load i32, ptr %35, align 4, !tbaa !9
  %37 = call noundef signext i8 @_ZL9U_FAILURE10UErrorCode(i32 noundef %36)
  %38 = icmp ne i8 %37, 0
  br i1 %38, label %39, label %41

39:                                               ; preds = %25
  %40 = load ptr, ptr %12, align 8, !tbaa !11
  call void @uprv_free_77(ptr noundef %40)
  store ptr null, ptr %6, align 8
  store i32 1, ptr %13, align 4
  br label %43

41:                                               ; preds = %25
  %42 = load ptr, ptr %12, align 8, !tbaa !11
  store ptr %42, ptr %6, align 8
  store i32 1, ptr %13, align 4
  br label %43

43:                                               ; preds = %41, %39, %23, %18
  call void @llvm.lifetime.end.p0(i64 8, ptr %12) #9
  %44 = load ptr, ptr %6, align 8
  ret ptr %44
}