; Function Attrs: mustprogress uwtable
define internal fastcc noundef ptr @_ZL13_uhash_createPFi8UElementEPFaS_S_ES3_iP10UErrorCode(ptr noundef %0, ptr noundef %1, ptr noundef %2, i32 noundef %3, ptr noundef captures(none) %4) unnamed_addr #0 {
  %6 = load i32, ptr %4, align 4, !tbaa !3
  %7 = icmp slt i32 %6, 1
  br i1 %7, label %8, label %48

8:                                                ; preds = %5
  %9 = tail call noalias dereferenceable_or_null(80) ptr @uprv_malloc_77(i64 noundef 80) #12
  %10 = icmp eq ptr %9, null
  br i1 %10, label %11, label %12

11:                                               ; preds = %8
  store i32 7, ptr %4, align 4, !tbaa !3
  br label %48

12:                                               ; preds = %8
  %13 = load i32, ptr %4, align 4, !tbaa !3
  %14 = icmp slt i32 %13, 1
  br i1 %14, label %15, label %_ZL11_uhash_initP10UHashtablePFi8UElementEPFaS1_S1_ES5_iP10UErrorCode.exit.thread

15:                                               ; preds = %12
  %16 = getelementptr inbounds nuw i8, ptr %9, i64 8
  store ptr %0, ptr %16, align 8, !tbaa !7
  %17 = getelementptr inbounds nuw i8, ptr %9, i64 16
  store ptr %1, ptr %17, align 8, !tbaa !13
  %18 = getelementptr inbounds nuw i8, ptr %9, i64 24
  store ptr %2, ptr %18, align 8, !tbaa !14
  %19 = getelementptr inbounds nuw i8, ptr %9, i64 32
  %20 = getelementptr inbounds nuw i8, ptr %9, i64 73
  store i8 0, ptr %20, align 1, !tbaa !15
  %21 = getelementptr inbounds nuw i8, ptr %9, i64 68
  store float 0.000000e+00, ptr %21, align 4, !tbaa !16
  %22 = getelementptr inbounds nuw i8, ptr %9, i64 64
  tail call void @llvm.memset.p0.i64(ptr noundef nonnull align 8 dereferenceable(16) %19, i8 0, i64 16, i1 false)
  store float 5.000000e-01, ptr %22, align 8, !tbaa !17
  %23 = trunc i32 %3 to i8
  %24 = getelementptr inbounds nuw i8, ptr %9, i64 72
  store i8 %23, ptr %24, align 8, !tbaa !18
  %25 = sext i32 %3 to i64
  %26 = getelementptr inbounds [29 x i32], ptr @_ZL6PRIMES, i64 0, i64 %25
  %27 = load i32, ptr %26, align 4, !tbaa !19
  %28 = getelementptr inbounds nuw i8, ptr %9, i64 52
  store i32 %27, ptr %28, align 4, !tbaa !20
  %29 = sext i32 %27 to i64
  %30 = mul nsw i64 %29, 24
  %31 = tail call noalias ptr @uprv_malloc_77(i64 noundef %30) #12
  store ptr %31, ptr %9, align 8, !tbaa !21
  %32 = icmp eq ptr %31, null
  br i1 %32, label %33, label %.lr.ph.i.i.preheader

33:                                               ; preds = %15
  store i32 7, ptr %4, align 4, !tbaa !3
  br label %_ZL11_uhash_initP10UHashtablePFi8UElementEPFaS1_S1_ES5_iP10UErrorCode.exit.thread

.lr.ph.i.i.preheader:                             ; preds = %15
  %34 = getelementptr inbounds %struct.UHashElement, ptr %31, i64 %29
  br label %.lr.ph.i.i

.lr.ph.i.i:                                       ; preds = %.lr.ph.i.i.preheader, %.lr.ph.i.i
  %.025.i.i = phi ptr [ %36, %.lr.ph.i.i ], [ %31, %.lr.ph.i.i.preheader ]
  %35 = getelementptr inbounds nuw i8, ptr %.025.i.i, i64 8
  tail call void @llvm.memset.p0.i64(ptr noundef nonnull align 8 dereferenceable(16) %35, i8 0, i64 16, i1 false)
  store i32 -2147483647, ptr %.025.i.i, align 8, !tbaa !22
  %36 = getelementptr inbounds nuw i8, ptr %.025.i.i, i64 24
  %37 = icmp ult ptr %36, %34
  br i1 %37, label %.lr.ph.i.i, label %_ZL11_uhash_initP10UHashtablePFi8UElementEPFaS1_S1_ES5_iP10UErrorCode.exit, !llvm.loop !24

_ZL11_uhash_initP10UHashtablePFi8UElementEPFaS1_S1_ES5_iP10UErrorCode.exit.thread: ; preds = %12, %33
  %38 = getelementptr inbounds nuw i8, ptr %9, i64 73
  store i8 1, ptr %38, align 1, !tbaa !15
  br label %47

_ZL11_uhash_initP10UHashtablePFi8UElementEPFaS1_S1_ES5_iP10UErrorCode.exit: ; preds = %.lr.ph.i.i
  %39 = getelementptr inbounds nuw i8, ptr %9, i64 48
  store i32 0, ptr %39, align 8, !tbaa !26
  %40 = sitofp i32 %27 to float
  %41 = getelementptr inbounds nuw i8, ptr %9, i64 60
  store i32 0, ptr %41, align 4, !tbaa !27
  %42 = fmul float %40, 5.000000e-01
  %43 = fptosi float %42 to i32
  %44 = getelementptr inbounds nuw i8, ptr %9, i64 56
  store i32 %43, ptr %44, align 8, !tbaa !28
  %.pre = load i32, ptr %4, align 4, !tbaa !3
  %45 = icmp slt i32 %.pre, 1
  %46 = getelementptr inbounds nuw i8, ptr %9, i64 73
  store i8 1, ptr %46, align 1, !tbaa !15
  br i1 %45, label %48, label %47

47:                                               ; preds = %_ZL11_uhash_initP10UHashtablePFi8UElementEPFaS1_S1_ES5_iP10UErrorCode.exit.thread, %_ZL11_uhash_initP10UHashtablePFi8UElementEPFaS1_S1_ES5_iP10UErrorCode.exit
  tail call void @uprv_free_77(ptr noundef nonnull %9)
  br label %48

48:                                               ; preds = %_ZL11_uhash_initP10UHashtablePFi8UElementEPFaS1_S1_ES5_iP10UErrorCode.exit, %5, %47, %11
  %.0 = phi ptr [ null, %11 ], [ null, %47 ], [ null, %5 ], [ %9, %_ZL11_uhash_initP10UHashtablePFi8UElementEPFaS1_S1_ES5_iP10UErrorCode.exit ]
  ret ptr %.0
}